target datalayout = "e-m:e-p270:32:32-p271:32:32-p272:64:64-i64:64-i128:128-f80:128-n8:16:32:64-S128"
target triple = "x86_64-pc-linux-gnu"

%struct.sentinelRedisInstance = type { i32, ptr, ptr, i64, ptr, ptr, i64, i64, i64, i64, i64, i64, i64, i64, i64, ptr, i32, i64, i64, ptr, ptr, i32, i32, ptr, ptr, i64, i32, i32, i64, ptr, ptr, i32, i32, i64, ptr, i64, i64, i32, i64, i64, i64, i64, ptr, ptr, ptr, ptr }
%struct.sentinelAddr = type { ptr, ptr, i32 }

@.str.21 = private unnamed_addr constant [11 x i8] c"sentinel.c\00", align 1
@.str.52 = private unnamed_addr constant [14 x i8] c"addr || runid\00", align 1

; Function Attrs: nounwind uwtable
define dso_local void @releaseSentinelAddr(ptr noundef %0) #0 {
  %2 = alloca ptr, align 8
  store ptr %0, ptr %2, align 8, !tbaa !94
  %3 = load ptr, ptr %2, align 8, !tbaa !94
  %4 = getelementptr inbounds nuw %struct.sentinelAddr, ptr %3, i32 0, i32 0
  %5 = load ptr, ptr %4, align 8, !tbaa !95
  call void @sdsfree(ptr noundef %5)
  %6 = load ptr, ptr %2, align 8, !tbaa !94
  %7 = getelementptr inbounds nuw %struct.sentinelAddr, ptr %6, i32 0, i32 1
  %8 = load ptr, ptr %7, align 8, !tbaa !97
  call void @sdsfree(ptr noundef %8)
  %9 = load ptr, ptr %2, align 8, !tbaa !94
  call void @zfree(ptr noundef %9)
  ret void
}

; Function Attrs: nounwind uwtable
define dso_local i32 @sentinelAddrOrHostnameEqual(ptr noundef %0, ptr noundef %1) #0 {
  %3 = alloca ptr, align 8
  %4 = alloca ptr, align 8
  store ptr %0, ptr %3, align 8, !tbaa !94
  store ptr %1, ptr %4, align 8, !tbaa !94
  %5 = load ptr, ptr %3, align 8, !tbaa !94
  %6 = getelementptr inbounds nuw %struct.sentinelAddr, ptr %5, i32 0, i32 2
  %7 = load i32, ptr %6, align 8, !tbaa !98
  %8 = load ptr, ptr %4, align 8, !tbaa !94
  %9 = getelementptr inbounds nuw %struct.sentinelAddr, ptr %8, i32 0, i32 2
  %10 = load i32, ptr %9, align 8, !tbaa !98
  %11 = icmp eq i32 %7, %10
  br i1 %11, label %12, label %33

12:                                               ; preds = %2
  %13 = load ptr, ptr %3, align 8, !tbaa !94
  %14 = getelementptr inbounds nuw %struct.sentinelAddr, ptr %13, i32 0, i32 1
  %15 = load ptr, ptr %14, align 8, !tbaa !97
  %16 = load ptr, ptr %4, align 8, !tbaa !94
  %17 = getelementptr inbounds nuw %struct.sentinelAddr, ptr %16, i32 0, i32 1
  %18 = load ptr, ptr %17, align 8, !tbaa !97
  %19 = call i32 @strcmp(ptr noundef %15, ptr noundef %18) #19
  %20 = icmp ne i32 %19, 0
  br i1 %20, label %21, label %31

21:                                               ; preds = %12
  %22 = load ptr, ptr %3, align 8, !tbaa !94
  %23 = getelementptr inbounds nuw %struct.sentinelAddr, ptr %22, i32 0, i32 0
  %24 = load ptr, ptr %23, align 8, !tbaa !95
  %25 = load ptr, ptr %4, align 8, !tbaa !94
  %26 = getelementptr inbounds nuw %struct.sentinelAddr, ptr %25, i32 0, i32 0
  %27 = load ptr, ptr %26, align 8, !tbaa !95
  %28 = call i32 @strcasecmp(ptr noundef %24, ptr noundef %27) #19
  %29 = icmp ne i32 %28, 0
  %30 = xor i1 %29, true
  br label %31

31:                                               ; preds = %21, %12
  %32 = phi i1 [ true, %12 ], [ %30, %21 ]
  br label %33

33:                                               ; preds = %31, %2
  %34 = phi i1 [ false, %2 ], [ %32, %31 ]
  %35 = zext i1 %34 to i32
  ret i32 %35
}

; Function Attrs: nounwind uwtable
define dso_local ptr @getSentinelRedisInstanceByAddrAndRunID(ptr noundef %0, ptr noundef %1, i32 noundef %2, ptr noundef %3) #0 {
  %5 = alloca ptr, align 8
  %6 = alloca ptr, align 8
  %7 = alloca ptr, align 8
  %8 = alloca i32, align 4
  %9 = alloca ptr, align 8
  %10 = alloca ptr, align 8
  %11 = alloca ptr, align 8
  %12 = alloca ptr, align 8
  %13 = alloca ptr, align 8
  %14 = alloca i32, align 4
  %15 = alloca ptr, align 8
  store ptr %0, ptr %6, align 8, !tbaa !5
  store ptr %1, ptr %7, align 8, !tbaa !93
  store i32 %2, ptr %8, align 4, !tbaa !82
  store ptr %3, ptr %9, align 8, !tbaa !93
  call void @llvm.lifetime.start.p0(i64 8, ptr %10) #16
  call void @llvm.lifetime.start.p0(i64 8, ptr %11) #16
  call void @llvm.lifetime.start.p0(i64 8, ptr %12) #16
  store ptr null, ptr %12, align 8, !tbaa !11
  call void @llvm.lifetime.start.p0(i64 8, ptr %13) #16
  store ptr null, ptr %13, align 8, !tbaa !94
  %16 = load ptr, ptr %7, align 8, !tbaa !93
  %17 = icmp ne ptr %16, null
  br i1 %17, label %21, label %18

18:                                               ; preds = %4
  %19 = load ptr, ptr %9, align 8, !tbaa !93
  %20 = icmp ne ptr %19, null
  br label %21

21:                                               ; preds = %18, %4
  %22 = phi i1 [ true, %4 ], [ %20, %18 ]
  %23 = xor i1 %22, true
  %24 = xor i1 %23, true
  %25 = zext i1 %24 to i32
  %26 = sext i32 %25 to i64
  %27 = call i64 @llvm.expect.i64(i64 %26, i64 1)
  %28 = icmp ne i64 %27, 0
  br i1 %28, label %29, label %30

29:                                               ; preds = %21
  br label %32

30:                                               ; preds = %21
  call void @_serverAssert(ptr noundef @.str.52, ptr noundef @.str.21, i32 noundef 1463)
  call void @abort() #15
  unreachable

31:                                               ; No predecessors!
  br label %32

32:                                               ; preds = %31, %29
  %33 = load ptr, ptr %7, align 8, !tbaa !93
  %34 = icmp ne ptr %33, null
  br i1 %34, label %35, label %43

35:                                               ; preds = %32
  %36 = load ptr, ptr %7, align 8, !tbaa !93
  %37 = load i32, ptr %8, align 4, !tbaa !82
  %38 = call ptr @createSentinelAddr(ptr noundef %36, i32 noundef %37, i32 noundef 1)
  store ptr %38, ptr %13, align 8, !tbaa !94
  %39 = load ptr, ptr %13, align 8, !tbaa !94
  %40 = icmp ne ptr %39, null
  br i1 %40, label %42, label %41

41:                                               ; preds = %35
  store ptr null, ptr %5, align 8
  store i32 1, ptr %14, align 4
  br label %95

42:                                               ; preds = %35
  br label %43

43:                                               ; preds = %42, %32
  %44 = load ptr, ptr %6, align 8, !tbaa !5
  %45 = call ptr @dictGetIterator(ptr noundef %44)
  store ptr %45, ptr %10, align 8, !tbaa !87
  br label %46

46:                                               ; preds = %86, %84, %43
  %47 = load ptr, ptr %10, align 8, !tbaa !87
  %48 = call ptr @dictNext(ptr noundef %47)
  store ptr %48, ptr %11, align 8, !tbaa !89
  %49 = icmp ne ptr %48, null
  br i1 %49, label %50, label %87

50:                                               ; preds = %46
  call void @llvm.lifetime.start.p0(i64 8, ptr %15) #16
  %51 = load ptr, ptr %11, align 8, !tbaa !89
  %52 = call ptr @dictGetVal(ptr noundef %51)
  store ptr %52, ptr %15, align 8, !tbaa !11
  %53 = load ptr, ptr %9, align 8, !tbaa !93
  %54 = icmp ne ptr %53, null
  br i1 %54, label %55, label %61

55:                                               ; preds = %50
  %56 = load ptr, ptr %15, align 8, !tbaa !11
  %57 = getelementptr inbounds nuw %struct.sentinelRedisInstance, ptr %56, i32 0, i32 2
  %58 = load ptr, ptr %57, align 8, !tbaa !24
  %59 = icmp ne ptr %58, null
  br i1 %59, label %61, label %60

60:                                               ; preds = %55
  store i32 2, ptr %14, align 4
  br label %84, !llvm.loop !169

61:                                               ; preds = %55, %50
  %62 = load ptr, ptr %9, align 8, !tbaa !93
  %63 = icmp eq ptr %62, null
  br i1 %63, label %71, label %64

64:                                               ; preds = %61
  %65 = load ptr, ptr %15, align 8, !tbaa !11
  %66 = getelementptr inbounds nuw %struct.sentinelRedisInstance, ptr %65, i32 0, i32 2
  %67 = load ptr, ptr %66, align 8, !tbaa !24
  %68 = load ptr, ptr %9, align 8, !tbaa !93
  %69 = call i32 @strcmp(ptr noundef %67, ptr noundef %68) #19
  %70 = icmp eq i32 %69, 0
  br i1 %70, label %71, label %83

71:                                               ; preds = %64, %61
  %72 = load ptr, ptr %7, align 8, !tbaa !93
  %73 = icmp eq ptr %72, null
  br i1 %73, label %81, label %74

74:                                               ; preds = %71
  %75 = load ptr, ptr %15, align 8, !tbaa !11
  %76 = getelementptr inbounds nuw %struct.sentinelRedisInstance, ptr %75, i32 0, i32 4
  %77 = load ptr, ptr %76, align 8, !tbaa !32
  %78 = load ptr, ptr %13, align 8, !tbaa !94
  %79 = call i32 @sentinelAddrOrHostnameEqual(ptr noundef %77, ptr noundef %78)
  %80 = icmp ne i32 %79, 0
  br i1 %80, label %81, label %83

81:                                               ; preds = %74, %71
  %82 = load ptr, ptr %15, align 8, !tbaa !11
  store ptr %82, ptr %12, align 8, !tbaa !11
  store i32 3, ptr %14, align 4
  br label %84

83:                                               ; preds = %74, %64
  store i32 0, ptr %14, align 4
  br label %84

84:                                               ; preds = %83, %81, %60
  call void @llvm.lifetime.end.p0(i64 8, ptr %15) #16
  %85 = load i32, ptr %14, align 4
  switch i32 %85, label %97 [
    i32 0, label %86
    i32 2, label %46
    i32 3, label %87
  ]

86:                                               ; preds = %84
  br label %46, !llvm.loop !169

87:                                               ; preds = %84, %46
  %88 = load ptr, ptr %10, align 8, !tbaa !87
  call void @dictReleaseIterator(ptr noundef %88)
  %89 = load ptr, ptr %13, align 8, !tbaa !94
  %90 = icmp ne ptr %89, null
  br i1 %90, label %91, label %93

91:                                               ; preds = %87
  %92 = load ptr, ptr %13, align 8, !tbaa !94
  call void @releaseSentinelAddr(ptr noundef %92)
  br label %93

93:                                               ; preds = %91, %87
  %94 = load ptr, ptr %12, align 8, !tbaa !11
  store ptr %94, ptr %5, align 8
  store i32 1, ptr %14, align 4
  br label %95

95:                                               ; preds = %93, %41
  call void @llvm.lifetime.end.p0(i64 8, ptr %13) #16
  call void @llvm.lifetime.end.p0(i64 8, ptr %12) #16
  call void @llvm.lifetime.end.p0(i64 8, ptr %11) #16
  call void @llvm.lifetime.end.p0(i64 8, ptr %10) #16
  %96 = load ptr, ptr %5, align 8
  ret ptr %96

97:                                               ; preds = %84
  unreachable
}