; Function Attrs: nounwind uwtable
define dso_local ptr @getSentinelRedisInstanceByAddrAndRunID(ptr noundef %0, ptr noundef %1, i32 noundef %2, ptr noundef readonly captures(address_is_null) %3) local_unnamed_addr #0 {
  %5 = icmp ne ptr %1, null
  %6 = icmp ne ptr %3, null
  %7 = or i1 %5, %6
  br i1 %7, label %9, label %8, !prof !103

8:                                                ; preds = %4
  tail call void @_serverAssert(ptr noundef nonnull @.str.52, ptr noundef nonnull @.str.21, i32 noundef 1463) #30
  tail call void @abort() #35
  unreachable

9:                                                ; preds = %4
  br i1 %5, label %10, label %12

10:                                               ; preds = %9
  %11 = tail call ptr @createSentinelAddr(ptr noundef nonnull %1, i32 noundef %2, i32 noundef 1)
  %.not = icmp eq ptr %11, null
  br i1 %.not, label %70, label %12

12:                                               ; preds = %10, %9
  %.024 = phi ptr [ %11, %10 ], [ null, %9 ]
  %13 = tail call ptr @dictGetIterator(ptr noundef %0) #30
  %14 = tail call ptr @dictNext(ptr noundef %13) #30
  %.not3045 = icmp eq ptr %14, null
  br i1 %.not3045, label %.thread37, label %.lr.ph

.lr.ph:                                           ; preds = %12
  %15 = icmp eq ptr %1, null
  %16 = getelementptr inbounds nuw i8, ptr %.024, i64 16
  %17 = getelementptr inbounds nuw i8, ptr %.024, i64 8
  br i1 %15, label %.lr.ph.split.us, label %.lr.ph.split

.lr.ph.split.us:                                  ; preds = %.lr.ph
  br i1 %6, label %.lr.ph.split.us.split.us, label %.lr.ph.split.us.split

.lr.ph.split.us.split.us:                         ; preds = %.lr.ph.split.us, %sentinelAddrOrHostnameEqual.exit.thread.us.us
  %18 = phi ptr [ %25, %sentinelAddrOrHostnameEqual.exit.thread.us.us ], [ %14, %.lr.ph.split.us ]
  %19 = tail call ptr @dictGetVal(ptr noundef nonnull %18) #30
  %20 = getelementptr inbounds nuw i8, ptr %19, i64 16
  %21 = load ptr, ptr %20, align 8, !tbaa !21
  %.not31.us.us = icmp eq ptr %21, null
  br i1 %.not31.us.us, label %sentinelAddrOrHostnameEqual.exit.thread.us.us, label %22, !llvm.loop !146

22:                                               ; preds = %.lr.ph.split.us.split.us
  %23 = tail call i32 @strcmp(ptr noundef nonnull dereferenceable(1) %21, ptr noundef nonnull dereferenceable(1) %3) #34
  %24 = icmp eq i32 %23, 0
  br i1 %24, label %.thread37, label %sentinelAddrOrHostnameEqual.exit.thread.us.us

sentinelAddrOrHostnameEqual.exit.thread.us.us:    ; preds = %22, %.lr.ph.split.us.split.us
  %25 = tail call ptr @dictNext(ptr noundef %13) #30
  %.not30.us.us = icmp eq ptr %25, null
  br i1 %.not30.us.us, label %.thread37, label %.lr.ph.split.us.split.us

.lr.ph.split.us.split:                            ; preds = %.lr.ph.split.us
  %26 = tail call ptr @dictGetVal(ptr noundef nonnull %14) #30
  br label %.thread37

.lr.ph.split:                                     ; preds = %.lr.ph
  br i1 %6, label %.lr.ph.split.split.us, label %.thread

.lr.ph.split.split.us:                            ; preds = %.lr.ph.split, %sentinelAddrOrHostnameEqual.exit.thread.us52
  %27 = phi ptr [ %48, %sentinelAddrOrHostnameEqual.exit.thread.us52 ], [ %14, %.lr.ph.split ]
  %28 = tail call ptr @dictGetVal(ptr noundef nonnull %27) #30
  %29 = getelementptr inbounds nuw i8, ptr %28, i64 16
  %30 = load ptr, ptr %29, align 8, !tbaa !21
  %.not31.us50 = icmp eq ptr %30, null
  br i1 %.not31.us50, label %sentinelAddrOrHostnameEqual.exit.thread.us52, label %31, !llvm.loop !146

31:                                               ; preds = %.lr.ph.split.split.us
  %32 = tail call i32 @strcmp(ptr noundef nonnull dereferenceable(1) %30, ptr noundef nonnull dereferenceable(1) %3) #34
  %33 = icmp eq i32 %32, 0
  br i1 %33, label %.thread.us51, label %sentinelAddrOrHostnameEqual.exit.thread.us52

.thread.us51:                                     ; preds = %31
  %34 = getelementptr inbounds nuw i8, ptr %28, i64 32
  %35 = load ptr, ptr %34, align 8, !tbaa !29
  %36 = getelementptr inbounds nuw i8, ptr %35, i64 16
  %37 = load i32, ptr %36, align 8, !tbaa !86
  %38 = load i32, ptr %16, align 8, !tbaa !86
  %39 = icmp eq i32 %37, %38
  br i1 %39, label %40, label %sentinelAddrOrHostnameEqual.exit.thread.us52

40:                                               ; preds = %.thread.us51
  %41 = getelementptr inbounds nuw i8, ptr %35, i64 8
  %42 = load ptr, ptr %41, align 8, !tbaa !32
  %43 = load ptr, ptr %17, align 8, !tbaa !32
  %44 = tail call i32 @strcmp(ptr noundef nonnull dereferenceable(1) %42, ptr noundef nonnull dereferenceable(1) %43) #34
  %.not.i.us = icmp eq i32 %44, 0
  br i1 %.not.i.us, label %.sink.split, label %sentinelAddrOrHostnameEqual.exit.us

sentinelAddrOrHostnameEqual.exit.us:              ; preds = %40
  %45 = load ptr, ptr %35, align 8, !tbaa !30
  %46 = load ptr, ptr %.024, align 8, !tbaa !30
  %47 = tail call i32 @strcasecmp(ptr noundef %45, ptr noundef %46) #34
  %.not6.i.not.us = icmp eq i32 %47, 0
  br i1 %.not6.i.not.us, label %.sink.split, label %sentinelAddrOrHostnameEqual.exit.thread.us52

sentinelAddrOrHostnameEqual.exit.thread.us52:     ; preds = %sentinelAddrOrHostnameEqual.exit.us, %.thread.us51, %31, %.lr.ph.split.split.us
  %48 = tail call ptr @dictNext(ptr noundef %13) #30
  %.not30.us53 = icmp eq ptr %48, null
  br i1 %.not30.us53, label %.thread37, label %.lr.ph.split.split.us

.thread:                                          ; preds = %.lr.ph.split, %sentinelAddrOrHostnameEqual.exit.thread
  %49 = phi ptr [ %65, %sentinelAddrOrHostnameEqual.exit.thread ], [ %14, %.lr.ph.split ]
  %50 = tail call ptr @dictGetVal(ptr noundef nonnull %49) #30
  %51 = getelementptr inbounds nuw i8, ptr %50, i64 32
  %52 = load ptr, ptr %51, align 8, !tbaa !29
  %53 = getelementptr inbounds nuw i8, ptr %52, i64 16
  %54 = load i32, ptr %53, align 8, !tbaa !86
  %55 = load i32, ptr %16, align 8, !tbaa !86
  %56 = icmp eq i32 %54, %55
  br i1 %56, label %57, label %sentinelAddrOrHostnameEqual.exit.thread

57:                                               ; preds = %.thread
  %58 = getelementptr inbounds nuw i8, ptr %52, i64 8
  %59 = load ptr, ptr %58, align 8, !tbaa !32
  %60 = load ptr, ptr %17, align 8, !tbaa !32
  %61 = tail call i32 @strcmp(ptr noundef nonnull dereferenceable(1) %59, ptr noundef nonnull dereferenceable(1) %60) #34
  %.not.i = icmp eq i32 %61, 0
  br i1 %.not.i, label %.sink.split, label %sentinelAddrOrHostnameEqual.exit

sentinelAddrOrHostnameEqual.exit:                 ; preds = %57
  %62 = load ptr, ptr %52, align 8, !tbaa !30
  %63 = load ptr, ptr %.024, align 8, !tbaa !30
  %64 = tail call i32 @strcasecmp(ptr noundef %62, ptr noundef %63) #34
  %.not6.i.not = icmp eq i32 %64, 0
  br i1 %.not6.i.not, label %.sink.split, label %sentinelAddrOrHostnameEqual.exit.thread

sentinelAddrOrHostnameEqual.exit.thread:          ; preds = %sentinelAddrOrHostnameEqual.exit, %.thread
  %65 = tail call ptr @dictNext(ptr noundef %13) #30
  %.not30 = icmp eq ptr %65, null
  br i1 %.not30, label %.sink.split, label %.thread

.thread37:                                        ; preds = %sentinelAddrOrHostnameEqual.exit.thread.us52, %sentinelAddrOrHostnameEqual.exit.thread.us.us, %22, %.lr.ph.split.us.split, %12
  %.1 = phi ptr [ null, %12 ], [ %26, %.lr.ph.split.us.split ], [ %19, %22 ], [ null, %sentinelAddrOrHostnameEqual.exit.thread.us.us ], [ null, %sentinelAddrOrHostnameEqual.exit.thread.us52 ]
  tail call void @dictReleaseIterator(ptr noundef %13) #30
  %.not33 = icmp eq ptr %.024, null
  br i1 %.not33, label %70, label %66

.sink.split:                                      ; preds = %57, %sentinelAddrOrHostnameEqual.exit, %sentinelAddrOrHostnameEqual.exit.thread, %sentinelAddrOrHostnameEqual.exit.us, %40
  %.144.ph = phi ptr [ %28, %40 ], [ %28, %sentinelAddrOrHostnameEqual.exit.us ], [ null, %sentinelAddrOrHostnameEqual.exit.thread ], [ %50, %57 ], [ %50, %sentinelAddrOrHostnameEqual.exit ]
  tail call void @dictReleaseIterator(ptr noundef %13) #30
  br label %66

66:                                               ; preds = %.sink.split, %.thread37
  %.144 = phi ptr [ %.1, %.thread37 ], [ %.144.ph, %.sink.split ]
  %67 = load ptr, ptr %.024, align 8, !tbaa !30
  tail call void @sdsfree(ptr noundef %67) #30
  %68 = getelementptr inbounds nuw i8, ptr %.024, i64 8
  %69 = load ptr, ptr %68, align 8, !tbaa !32
  tail call void @sdsfree(ptr noundef %69) #30
  tail call void @zfree(ptr noundef nonnull %.024) #30
  br label %70

70:                                               ; preds = %.thread37, %66, %10
  %.0 = phi ptr [ null, %10 ], [ %.144, %66 ], [ %.1, %.thread37 ]
  ret ptr %.0
}